target datalayout = "e-m:e-p270:32:32-p271:32:32-p272:64:64-i64:64-i128:128-f80:128-n8:16:32:64-S128"
target triple = "x86_64-pc-linux-gnu"

%class.anon.637 = type { ptr, ptr }
%"struct.__gnu_cxx::__ops::_Iter_comp_iter.640" = type { %class.anon.637 }

; Function Attrs: mustprogress uwtable
define internal void @"_ZSt22__stable_sort_adaptiveIPPN4pkpy8PyObjectES3_lN9__gnu_cxx5__ops15_Iter_comp_iterIZZNS0_15__init_builtinsEPNS0_2VMEENK5$_110clES8_NS0_8ArgsViewEEUlS2_S2_E0_EEEvT_SD_T0_T1_T2_"(ptr noundef %0, ptr noundef %1, ptr noundef %2, i64 noundef %3, ptr %4, ptr %5) #4 {
  %7 = alloca %"struct.__gnu_cxx::__ops::_Iter_comp_iter.640", align 8
  %8 = alloca ptr, align 8
  %9 = alloca ptr, align 8
  %10 = alloca ptr, align 8
  %11 = alloca i64, align 8
  %12 = alloca i64, align 8
  %13 = alloca ptr, align 8
  %14 = alloca %"struct.__gnu_cxx::__ops::_Iter_comp_iter.640", align 8
  %15 = alloca %"struct.__gnu_cxx::__ops::_Iter_comp_iter.640", align 8
  %16 = alloca %"struct.__gnu_cxx::__ops::_Iter_comp_iter.640", align 8
  %17 = alloca %"struct.__gnu_cxx::__ops::_Iter_comp_iter.640", align 8
  %18 = alloca %"struct.__gnu_cxx::__ops::_Iter_comp_iter.640", align 8
  %19 = getelementptr inbounds { ptr, ptr }, ptr %7, i32 0, i32 0
  store ptr %4, ptr %19, align 8
  %20 = getelementptr inbounds { ptr, ptr }, ptr %7, i32 0, i32 1
  store ptr %5, ptr %20, align 8
  store ptr %0, ptr %8, align 8
  store ptr %1, ptr %9, align 8
  store ptr %2, ptr %10, align 8
  store i64 %3, ptr %11, align 8
  %21 = load ptr, ptr %9, align 8
  %22 = load ptr, ptr %8, align 8
  %23 = ptrtoint ptr %21 to i64
  %24 = ptrtoint ptr %22 to i64
  %25 = sub i64 %23, %24
  %26 = sdiv exact i64 %25, 8
  %27 = add nsw i64 %26, 1
  %28 = sdiv i64 %27, 2
  store i64 %28, ptr %12, align 8
  %29 = load ptr, ptr %8, align 8
  %30 = load i64, ptr %12, align 8
  %31 = getelementptr inbounds ptr, ptr %29, i64 %30
  store ptr %31, ptr %13, align 8
  %32 = load i64, ptr %12, align 8
  %33 = load i64, ptr %11, align 8
  %34 = icmp sgt i64 %32, %33
  br i1 %34, label %35, label %52

35:                                               ; preds = %6
  %36 = load ptr, ptr %8, align 8
  %37 = load ptr, ptr %13, align 8
  %38 = load ptr, ptr %10, align 8
  %39 = load i64, ptr %11, align 8
  call void @llvm.memcpy.p0.p0.i64(ptr align 8 %14, ptr align 8 %7, i64 16, i1 false)
  %40 = getelementptr inbounds { ptr, ptr }, ptr %14, i32 0, i32 0
  %41 = load ptr, ptr %40, align 8
  %42 = getelementptr inbounds { ptr, ptr }, ptr %14, i32 0, i32 1
  %43 = load ptr, ptr %42, align 8
  call void @"_ZSt22__stable_sort_adaptiveIPPN4pkpy8PyObjectES3_lN9__gnu_cxx5__ops15_Iter_comp_iterIZZNS0_15__init_builtinsEPNS0_2VMEENK5$_110clES8_NS0_8ArgsViewEEUlS2_S2_E0_EEEvT_SD_T0_T1_T2_"(ptr noundef %36, ptr noundef %37, ptr noundef %38, i64 noundef %39, ptr %41, ptr %43)
  %44 = load ptr, ptr %13, align 8
  %45 = load ptr, ptr %9, align 8
  %46 = load ptr, ptr %10, align 8
  %47 = load i64, ptr %11, align 8
  call void @llvm.memcpy.p0.p0.i64(ptr align 8 %15, ptr align 8 %7, i64 16, i1 false)
  %48 = getelementptr inbounds { ptr, ptr }, ptr %15, i32 0, i32 0
  %49 = load ptr, ptr %48, align 8
  %50 = getelementptr inbounds { ptr, ptr }, ptr %15, i32 0, i32 1
  %51 = load ptr, ptr %50, align 8
  call void @"_ZSt22__stable_sort_adaptiveIPPN4pkpy8PyObjectES3_lN9__gnu_cxx5__ops15_Iter_comp_iterIZZNS0_15__init_builtinsEPNS0_2VMEENK5$_110clES8_NS0_8ArgsViewEEUlS2_S2_E0_EEEvT_SD_T0_T1_T2_"(ptr noundef %44, ptr noundef %45, ptr noundef %46, i64 noundef %47, ptr %49, ptr %51)
  br label %67

52:                                               ; preds = %6
  %53 = load ptr, ptr %8, align 8
  %54 = load ptr, ptr %13, align 8
  %55 = load ptr, ptr %10, align 8
  call void @llvm.memcpy.p0.p0.i64(ptr align 8 %16, ptr align 8 %7, i64 16, i1 false)
  %56 = getelementptr inbounds { ptr, ptr }, ptr %16, i32 0, i32 0
  %57 = load ptr, ptr %56, align 8
  %58 = getelementptr inbounds { ptr, ptr }, ptr %16, i32 0, i32 1
  %59 = load ptr, ptr %58, align 8
  call void @"_ZSt24__merge_sort_with_bufferIPPN4pkpy8PyObjectES3_N9__gnu_cxx5__ops15_Iter_comp_iterIZZNS0_15__init_builtinsEPNS0_2VMEENK5$_110clES8_NS0_8ArgsViewEEUlS2_S2_E0_EEEvT_SD_T0_T1_"(ptr noundef %53, ptr noundef %54, ptr noundef %55, ptr %57, ptr %59)
  %60 = load ptr, ptr %13, align 8
  %61 = load ptr, ptr %9, align 8
  %62 = load ptr, ptr %10, align 8
  call void @llvm.memcpy.p0.p0.i64(ptr align 8 %17, ptr align 8 %7, i64 16, i1 false)
  %63 = getelementptr inbounds { ptr, ptr }, ptr %17, i32 0, i32 0
  %64 = load ptr, ptr %63, align 8
  %65 = getelementptr inbounds { ptr, ptr }, ptr %17, i32 0, i32 1
  %66 = load ptr, ptr %65, align 8
  call void @"_ZSt24__merge_sort_with_bufferIPPN4pkpy8PyObjectES3_N9__gnu_cxx5__ops15_Iter_comp_iterIZZNS0_15__init_builtinsEPNS0_2VMEENK5$_110clES8_NS0_8ArgsViewEEUlS2_S2_E0_EEEvT_SD_T0_T1_"(ptr noundef %60, ptr noundef %61, ptr noundef %62, ptr %64, ptr %66)
  br label %67

67:                                               ; preds = %52, %35
  %68 = load ptr, ptr %8, align 8
  %69 = load ptr, ptr %13, align 8
  %70 = load ptr, ptr %9, align 8
  %71 = load ptr, ptr %13, align 8
  %72 = load ptr, ptr %8, align 8
  %73 = ptrtoint ptr %71 to i64
  %74 = ptrtoint ptr %72 to i64
  %75 = sub i64 %73, %74
  %76 = sdiv exact i64 %75, 8
  %77 = load ptr, ptr %9, align 8
  %78 = load ptr, ptr %13, align 8
  %79 = ptrtoint ptr %77 to i64
  %80 = ptrtoint ptr %78 to i64
  %81 = sub i64 %79, %80
  %82 = sdiv exact i64 %81, 8
  %83 = load ptr, ptr %10, align 8
  %84 = load i64, ptr %11, align 8
  call void @llvm.memcpy.p0.p0.i64(ptr align 8 %18, ptr align 8 %7, i64 16, i1 false)
  call void @"_ZSt16__merge_adaptiveIPPN4pkpy8PyObjectElS3_N9__gnu_cxx5__ops15_Iter_comp_iterIZZNS0_15__init_builtinsEPNS0_2VMEENK5$_110clES8_NS0_8ArgsViewEEUlS2_S2_E0_EEEvT_SD_SD_T0_SE_T1_SE_T2_"(ptr noundef %68, ptr noundef %69, ptr noundef %70, i64 noundef %76, i64 noundef %82, ptr noundef %83, i64 noundef %84, ptr noundef byval(%"struct.__gnu_cxx::__ops::_Iter_comp_iter.640") align 8 %18)
  ret void
}