; Function Attrs: mustprogress uwtable
define internal fastcc void @"_ZSt22__stable_sort_adaptiveIPPN4pkpy8PyObjectES3_lN9__gnu_cxx5__ops15_Iter_comp_iterIZZNS0_15__init_builtinsEPNS0_2VMEENK5$_110clES8_NS0_8ArgsViewEEUlS2_S2_E0_EEEvT_SD_T0_T1_T2_"(ptr noundef %0, ptr noundef %1, ptr noundef %2, i64 noundef %3, ptr %4, ptr %5) unnamed_addr #4 {
  %7 = alloca %"struct.__gnu_cxx::__ops::_Iter_comp_iter.640", align 8
  %8 = ptrtoint ptr %1 to i64
  %9 = ptrtoint ptr %0 to i64
  %10 = sub i64 %8, %9
  %11 = ashr exact i64 %10, 3
  %12 = add nsw i64 %11, 1
  %13 = sdiv i64 %12, 2
  %14 = getelementptr inbounds ptr, ptr %0, i64 %13
  %15 = icmp sgt i64 %13, %3
  br i1 %15, label %16, label %17

16:                                               ; preds = %6
  tail call fastcc void @"_ZSt22__stable_sort_adaptiveIPPN4pkpy8PyObjectES3_lN9__gnu_cxx5__ops15_Iter_comp_iterIZZNS0_15__init_builtinsEPNS0_2VMEENK5$_110clES8_NS0_8ArgsViewEEUlS2_S2_E0_EEEvT_SD_T0_T1_T2_"(ptr noundef %0, ptr noundef %14, ptr noundef %2, i64 noundef %3, ptr %4, ptr %5)
  tail call fastcc void @"_ZSt22__stable_sort_adaptiveIPPN4pkpy8PyObjectES3_lN9__gnu_cxx5__ops15_Iter_comp_iterIZZNS0_15__init_builtinsEPNS0_2VMEENK5$_110clES8_NS0_8ArgsViewEEUlS2_S2_E0_EEEvT_SD_T0_T1_T2_"(ptr noundef %14, ptr noundef %1, ptr noundef %2, i64 noundef %3, ptr %4, ptr %5)
  br label %18

17:                                               ; preds = %6
  tail call fastcc void @"_ZSt24__merge_sort_with_bufferIPPN4pkpy8PyObjectES3_N9__gnu_cxx5__ops15_Iter_comp_iterIZZNS0_15__init_builtinsEPNS0_2VMEENK5$_110clES8_NS0_8ArgsViewEEUlS2_S2_E0_EEEvT_SD_T0_T1_"(ptr noundef %0, ptr noundef %14, ptr noundef %2, ptr %4, ptr %5)
  tail call fastcc void @"_ZSt24__merge_sort_with_bufferIPPN4pkpy8PyObjectES3_N9__gnu_cxx5__ops15_Iter_comp_iterIZZNS0_15__init_builtinsEPNS0_2VMEENK5$_110clES8_NS0_8ArgsViewEEUlS2_S2_E0_EEEvT_SD_T0_T1_"(ptr noundef %14, ptr noundef %1, ptr noundef %2, ptr %4, ptr %5)
  br label %18

18:                                               ; preds = %17, %16
  %19 = ptrtoint ptr %14 to i64
  %20 = sub i64 %8, %19
  %21 = ashr exact i64 %20, 3
  store ptr %4, ptr %7, align 8
  %.sroa.6.0..sroa_idx = getelementptr inbounds i8, ptr %7, i64 8
  store ptr %5, ptr %.sroa.6.0..sroa_idx, align 8
  tail call fastcc void @"_ZSt16__merge_adaptiveIPPN4pkpy8PyObjectElS3_N9__gnu_cxx5__ops15_Iter_comp_iterIZZNS0_15__init_builtinsEPNS0_2VMEENK5$_110clES8_NS0_8ArgsViewEEUlS2_S2_E0_EEEvT_SD_SD_T0_SE_T1_SE_T2_"(ptr noundef %0, ptr noundef %14, ptr noundef %1, i64 noundef %13, i64 noundef %21, ptr noundef %2, i64 noundef %3, ptr noundef nonnull byval(%"struct.__gnu_cxx::__ops::_Iter_comp_iter.640") align 8 %7)
  ret void
}